target datalayout = "e-m:e-p270:32:32-p271:32:32-p272:64:64-i64:64-i128:128-f80:128-n8:16:32:64-S128"
target triple = "x86_64-pc-linux-gnu"

%struct.FFFrameSync = type { ptr, ptr, i32, %struct.AVRational, i64, ptr, ptr, i32, i32, i8, i8, ptr, i32, i32, i32, i32 }
%struct.AVRational = type { i32, i32 }
%struct.AVFilterContext = type { ptr, ptr, ptr, ptr, ptr, i32, ptr, ptr, i32, ptr, ptr, i32, i32, ptr, ptr, ptr, ptr, i32, ptr, i32, i32 }
%struct.FFFrameSyncIn = type { i32, i32, %struct.AVRational, ptr, ptr, i64, i64, i8, i8, i32, i32 }
%struct.AVFilterLink = type { ptr, ptr, ptr, ptr, i32, i32, i32, i32, %struct.AVRational, i32, i32, i32, %struct.AVChannelLayout, %struct.AVRational, ptr, i32, %struct.AVFilterFormatsConfig, %struct.AVFilterFormatsConfig }
%struct.AVChannelLayout = type { i32, i32, %union.anon.0, ptr }
%union.anon.0 = type { i64 }
%struct.AVFilterFormatsConfig = type { ptr, ptr, ptr, ptr, ptr }

@ff_framesync_class = constant { ptr, ptr, ptr, i32, i32, i32, i32, ptr, ptr, ptr, ptr, i32, [4 x i8] } { ptr @.str, ptr @framesync_name, ptr @framesync_options, i32 3932772, i32 0, i32 8, i32 7, ptr null, ptr null, ptr null, ptr null, i32 0, [4 x i8] zeroinitializer }, align 8
@.str.1 = private unnamed_addr constant [30 x i8] c"Assertion %s failed at %s:%d\0A\00", align 1
@.str.2 = private unnamed_addr constant [24 x i8] c"parent->nb_outputs == 1\00", align 1
@.str.3 = private unnamed_addr constant [24 x i8] c"libavfilter/framesync.c\00", align 1

; Function Attrs: nounwind uwtable
define void @ff_framesync_preinit(ptr noundef %0) #0 {
  %2 = alloca ptr, align 8
  store ptr %0, ptr %2, align 8, !tbaa !12
  %3 = load ptr, ptr %2, align 8, !tbaa !12
  %4 = getelementptr inbounds nuw %struct.FFFrameSync, ptr %3, i32 0, i32 0
  %5 = load ptr, ptr %4, align 8, !tbaa !14
  %6 = icmp ne ptr %5, null
  br i1 %6, label %7, label %8

7:                                                ; preds = %1
  br label %12

8:                                                ; preds = %1
  %9 = load ptr, ptr %2, align 8, !tbaa !12
  %10 = getelementptr inbounds nuw %struct.FFFrameSync, ptr %9, i32 0, i32 0
  store ptr @ff_framesync_class, ptr %10, align 8, !tbaa !14
  %11 = load ptr, ptr %2, align 8, !tbaa !12
  call void @av_opt_set_defaults(ptr noundef %11)
  br label %12

12:                                               ; preds = %8, %7
  ret void
}

; Function Attrs: nounwind uwtable
define i32 @ff_framesync_init(ptr noundef %0, ptr noundef %1, i32 noundef %2) #0 {
  %4 = alloca i32, align 4
  %5 = alloca ptr, align 8
  %6 = alloca ptr, align 8
  %7 = alloca i32, align 4
  store ptr %0, ptr %5, align 8, !tbaa !12
  store ptr %1, ptr %6, align 8, !tbaa !21
  store i32 %2, ptr %7, align 4, !tbaa !22
  br label %8

8:                                                ; preds = %3
  %9 = load ptr, ptr %6, align 8, !tbaa !21
  %10 = getelementptr inbounds nuw %struct.AVFilterContext, ptr %9, i32 0, i32 8
  %11 = load i32, ptr %10, align 8, !tbaa !23
  %12 = icmp eq i32 %11, 1
  br i1 %12, label %14, label %13

13:                                               ; preds = %8
  call void (ptr, i32, ptr, ...) @av_log(ptr noundef null, i32 noundef 0, ptr noundef @.str.1, ptr noundef @.str.2, ptr noundef @.str.3, i32 noundef 91)
  call void @abort() #8
  unreachable

14:                                               ; preds = %8
  br label %15

15:                                               ; preds = %14
  %16 = load ptr, ptr %5, align 8, !tbaa !12
  call void @ff_framesync_preinit(ptr noundef %16)
  %17 = load ptr, ptr %6, align 8, !tbaa !21
  %18 = load ptr, ptr %5, align 8, !tbaa !12
  %19 = getelementptr inbounds nuw %struct.FFFrameSync, ptr %18, i32 0, i32 1
  store ptr %17, ptr %19, align 8, !tbaa !33
  %20 = load i32, ptr %7, align 4, !tbaa !22
  %21 = load ptr, ptr %5, align 8, !tbaa !12
  %22 = getelementptr inbounds nuw %struct.FFFrameSync, ptr %21, i32 0, i32 2
  store i32 %20, ptr %22, align 8, !tbaa !34
  %23 = load i32, ptr %7, align 4, !tbaa !22
  %24 = zext i32 %23 to i64
  %25 = call noalias ptr @av_calloc(i64 noundef %24, i64 noundef 64)
  %26 = load ptr, ptr %5, align 8, !tbaa !12
  %27 = getelementptr inbounds nuw %struct.FFFrameSync, ptr %26, i32 0, i32 11
  store ptr %25, ptr %27, align 8, !tbaa !35
  %28 = load ptr, ptr %5, align 8, !tbaa !12
  %29 = getelementptr inbounds nuw %struct.FFFrameSync, ptr %28, i32 0, i32 11
  %30 = load ptr, ptr %29, align 8, !tbaa !35
  %31 = icmp ne ptr %30, null
  br i1 %31, label %35, label %32

32:                                               ; preds = %15
  %33 = load ptr, ptr %5, align 8, !tbaa !12
  %34 = getelementptr inbounds nuw %struct.FFFrameSync, ptr %33, i32 0, i32 2
  store i32 0, ptr %34, align 8, !tbaa !34
  store i32 -12, ptr %4, align 4
  br label %36

35:                                               ; preds = %15
  store i32 0, ptr %4, align 4
  br label %36

36:                                               ; preds = %35, %32
  %37 = load i32, ptr %4, align 4
  ret i32 %37
}

; Function Attrs: nounwind uwtable
define i32 @ff_framesync_init_dualinput(ptr noundef %0, ptr noundef %1) #0 {
  %3 = alloca i32, align 4
  %4 = alloca ptr, align 8
  %5 = alloca ptr, align 8
  %6 = alloca i32, align 4
  %7 = alloca i32, align 4
  store ptr %0, ptr %4, align 8, !tbaa !12
  store ptr %1, ptr %5, align 8, !tbaa !21
  call void @llvm.lifetime.start.p0(i64 4, ptr %6) #7
  %8 = load ptr, ptr %4, align 8, !tbaa !12
  %9 = load ptr, ptr %5, align 8, !tbaa !21
  %10 = call i32 @ff_framesync_init(ptr noundef %8, ptr noundef %9, i32 noundef 2)
  store i32 %10, ptr %6, align 4, !tbaa !22
  %11 = load i32, ptr %6, align 4, !tbaa !22
  %12 = icmp slt i32 %11, 0
  br i1 %12, label %13, label %15

13:                                               ; preds = %2
  %14 = load i32, ptr %6, align 4, !tbaa !22
  store i32 %14, ptr %3, align 4
  store i32 1, ptr %7, align 4
  br label %68

15:                                               ; preds = %2
  %16 = load ptr, ptr %4, align 8, !tbaa !12
  %17 = getelementptr inbounds nuw %struct.FFFrameSync, ptr %16, i32 0, i32 11
  %18 = load ptr, ptr %17, align 8, !tbaa !35
  %19 = getelementptr inbounds %struct.FFFrameSyncIn, ptr %18, i64 0
  %20 = getelementptr inbounds nuw %struct.FFFrameSyncIn, ptr %19, i32 0, i32 2
  %21 = load ptr, ptr %5, align 8, !tbaa !21
  %22 = getelementptr inbounds nuw %struct.AVFilterContext, ptr %21, i32 0, i32 4
  %23 = load ptr, ptr %22, align 8, !tbaa !74
  %24 = getelementptr inbounds ptr, ptr %23, i64 0
  %25 = load ptr, ptr %24, align 8, !tbaa !71
  %26 = getelementptr inbounds nuw %struct.AVFilterLink, ptr %25, i32 0, i32 13
  call void @llvm.memcpy.p0.p0.i64(ptr align 8 %20, ptr align 8 %26, i64 8, i1 false), !tbaa.struct !49
  %27 = load ptr, ptr %4, align 8, !tbaa !12
  %28 = getelementptr inbounds nuw %struct.FFFrameSync, ptr %27, i32 0, i32 11
  %29 = load ptr, ptr %28, align 8, !tbaa !35
  %30 = getelementptr inbounds %struct.FFFrameSyncIn, ptr %29, i64 1
  %31 = getelementptr inbounds nuw %struct.FFFrameSyncIn, ptr %30, i32 0, i32 2
  %32 = load ptr, ptr %5, align 8, !tbaa !21
  %33 = getelementptr inbounds nuw %struct.AVFilterContext, ptr %32, i32 0, i32 4
  %34 = load ptr, ptr %33, align 8, !tbaa !74
  %35 = getelementptr inbounds ptr, ptr %34, i64 1
  %36 = load ptr, ptr %35, align 8, !tbaa !71
  %37 = getelementptr inbounds nuw %struct.AVFilterLink, ptr %36, i32 0, i32 13
  call void @llvm.memcpy.p0.p0.i64(ptr align 8 %31, ptr align 8 %37, i64 8, i1 false), !tbaa.struct !49
  %38 = load ptr, ptr %4, align 8, !tbaa !12
  %39 = getelementptr inbounds nuw %struct.FFFrameSync, ptr %38, i32 0, i32 11
  %40 = load ptr, ptr %39, align 8, !tbaa !35
  %41 = getelementptr inbounds %struct.FFFrameSyncIn, ptr %40, i64 0
  %42 = getelementptr inbounds nuw %struct.FFFrameSyncIn, ptr %41, i32 0, i32 9
  store i32 2, ptr %42, align 4, !tbaa !42
  %43 = load ptr, ptr %4, align 8, !tbaa !12
  %44 = getelementptr inbounds nuw %struct.FFFrameSync, ptr %43, i32 0, i32 11
  %45 = load ptr, ptr %44, align 8, !tbaa !35
  %46 = getelementptr inbounds %struct.FFFrameSyncIn, ptr %45, i64 0
  %47 = getelementptr inbounds nuw %struct.FFFrameSyncIn, ptr %46, i32 0, i32 0
  store i32 0, ptr %47, align 8, !tbaa !79
  %48 = load ptr, ptr %4, align 8, !tbaa !12
  %49 = getelementptr inbounds nuw %struct.FFFrameSync, ptr %48, i32 0, i32 11
  %50 = load ptr, ptr %49, align 8, !tbaa !35
  %51 = getelementptr inbounds %struct.FFFrameSyncIn, ptr %50, i64 0
  %52 = getelementptr inbounds nuw %struct.FFFrameSyncIn, ptr %51, i32 0, i32 1
  store i32 2, ptr %52, align 4, !tbaa !39
  %53 = load ptr, ptr %4, align 8, !tbaa !12
  %54 = getelementptr inbounds nuw %struct.FFFrameSync, ptr %53, i32 0, i32 11
  %55 = load ptr, ptr %54, align 8, !tbaa !35
  %56 = getelementptr inbounds %struct.FFFrameSyncIn, ptr %55, i64 1
  %57 = getelementptr inbounds nuw %struct.FFFrameSyncIn, ptr %56, i32 0, i32 9
  store i32 1, ptr %57, align 4, !tbaa !42
  %58 = load ptr, ptr %4, align 8, !tbaa !12
  %59 = getelementptr inbounds nuw %struct.FFFrameSync, ptr %58, i32 0, i32 11
  %60 = load ptr, ptr %59, align 8, !tbaa !35
  %61 = getelementptr inbounds %struct.FFFrameSyncIn, ptr %60, i64 1
  %62 = getelementptr inbounds nuw %struct.FFFrameSyncIn, ptr %61, i32 0, i32 0
  store i32 1, ptr %62, align 8, !tbaa !79
  %63 = load ptr, ptr %4, align 8, !tbaa !12
  %64 = getelementptr inbounds nuw %struct.FFFrameSync, ptr %63, i32 0, i32 11
  %65 = load ptr, ptr %64, align 8, !tbaa !35
  %66 = getelementptr inbounds %struct.FFFrameSyncIn, ptr %65, i64 1
  %67 = getelementptr inbounds nuw %struct.FFFrameSyncIn, ptr %66, i32 0, i32 1
  store i32 2, ptr %67, align 4, !tbaa !39
  store i32 0, ptr %3, align 4
  store i32 1, ptr %7, align 4
  br label %68

68:                                               ; preds = %15, %13
  call void @llvm.lifetime.end.p0(i64 4, ptr %6) #7
  %69 = load i32, ptr %3, align 4
  ret i32 %69
}