; Function Attrs: nounwind uwtable
define range(i32 -12, 1) i32 @ff_framesync_init_dualinput(ptr noundef %0, ptr noundef %1) local_unnamed_addr #3 {
  %3 = getelementptr inbounds nuw i8, ptr %1, i64 64
  %4 = load i32, ptr %3, align 8, !tbaa !16
  %5 = icmp eq i32 %4, 1
  br i1 %5, label %7, label %6

6:                                                ; preds = %2
  tail call void (ptr, i32, ptr, ...) @av_log(ptr noundef null, i32 noundef 0, ptr noundef nonnull @.str.1, ptr noundef nonnull @.str.2, ptr noundef nonnull @.str.3, i32 noundef 91) #8
  tail call void @abort() #9
  unreachable

7:                                                ; preds = %2
  %8 = load ptr, ptr %0, align 8, !tbaa !8
  %.not.i.i = icmp eq ptr %8, null
  br i1 %.not.i.i, label %9, label %ff_framesync_preinit.exit.i

9:                                                ; preds = %7
  store ptr @ff_framesync_class, ptr %0, align 8, !tbaa !8
  tail call void @av_opt_set_defaults(ptr noundef nonnull %0) #8
  br label %ff_framesync_preinit.exit.i

ff_framesync_preinit.exit.i:                      ; preds = %9, %7
  %10 = getelementptr inbounds nuw i8, ptr %0, i64 8
  store ptr %1, ptr %10, align 8, !tbaa !27
  %11 = getelementptr inbounds nuw i8, ptr %0, i64 16
  store i32 2, ptr %11, align 8, !tbaa !28
  %12 = tail call noalias ptr @av_calloc(i64 noundef 2, i64 noundef 64) #8
  %13 = getelementptr inbounds nuw i8, ptr %0, i64 72
  store ptr %12, ptr %13, align 8, !tbaa !29
  %.not.i = icmp eq ptr %12, null
  br i1 %.not.i, label %ff_framesync_init.exit.thread, label %ff_framesync_init.exit

ff_framesync_init.exit.thread:                    ; preds = %ff_framesync_preinit.exit.i
  store i32 0, ptr %11, align 8, !tbaa !28
  br label %30

ff_framesync_init.exit:                           ; preds = %ff_framesync_preinit.exit.i
  %14 = getelementptr inbounds nuw i8, ptr %12, i64 8
  %15 = getelementptr inbounds nuw i8, ptr %1, i64 32
  %16 = load ptr, ptr %15, align 8, !tbaa !63
  %17 = load ptr, ptr %16, align 8, !tbaa !55
  %18 = getelementptr inbounds nuw i8, ptr %17, i64 96
  %19 = load i64, ptr %18, align 8
  store i64 %19, ptr %14, align 8
  %20 = getelementptr inbounds nuw i8, ptr %12, i64 72
  %21 = getelementptr inbounds nuw i8, ptr %16, i64 8
  %22 = load ptr, ptr %21, align 8, !tbaa !55
  %23 = getelementptr inbounds nuw i8, ptr %22, i64 96
  %24 = load i64, ptr %23, align 8
  store i64 %24, ptr %20, align 8
  %25 = getelementptr inbounds nuw i8, ptr %12, i64 52
  store i32 2, ptr %25, align 4, !tbaa !36
  store i32 0, ptr %12, align 8, !tbaa !78
  %26 = getelementptr inbounds nuw i8, ptr %12, i64 4
  store i32 2, ptr %26, align 4, !tbaa !33
  %27 = getelementptr inbounds nuw i8, ptr %12, i64 116
  store i32 1, ptr %27, align 4, !tbaa !36
  %28 = getelementptr inbounds nuw i8, ptr %12, i64 64
  store i32 1, ptr %28, align 8, !tbaa !78
  %29 = getelementptr inbounds nuw i8, ptr %12, i64 68
  store i32 2, ptr %29, align 4, !tbaa !33
  br label %30

30:                                               ; preds = %ff_framesync_init.exit.thread, %ff_framesync_init.exit
  %.0 = phi i32 [ 0, %ff_framesync_init.exit ], [ -12, %ff_framesync_init.exit.thread ]
  ret i32 %.0
}